; Function Attrs: mustprogress uwtable
define void @_ZNK19OpenColorIO_v2_5dev6Config12getProcessorERKSt10shared_ptrIKNS_7ContextEEPKcS8_(ptr dead_on_unwind noalias writable writeonly sret(%"class.std::shared_ptr.147") align 8 captures(none) %0, ptr noundef nonnull align 8 dereferenceable(8) %1, ptr noundef nonnull align 8 dereferenceable(16) %2, ptr noundef %3, ptr noundef %4) local_unnamed_addr #4 align 2 personality ptr @__gxx_personality_v0 {
  %6 = alloca %"class.std::shared_ptr.150", align 8
  %7 = alloca %"class.std::shared_ptr.107", align 8
  call void @llvm.lifetime.start.p0(i64 16, ptr nonnull %6) #34
  call void @_ZN19OpenColorIO_v2_5dev19ColorSpaceTransform6CreateEv(ptr dead_on_unwind nonnull writable sret(%"class.std::shared_ptr.150") align 8 %6)
  %8 = load ptr, ptr %6, align 8, !tbaa !681
  invoke void @_ZN19OpenColorIO_v2_5dev19ColorSpaceTransform6setSrcEPKc(ptr noundef nonnull align 8 dereferenceable(16) %8, ptr noundef %3)
          to label %9 unwind label %69

9:                                                ; preds = %5
  %10 = load ptr, ptr %6, align 8, !tbaa !681
  invoke void @_ZN19OpenColorIO_v2_5dev19ColorSpaceTransform6setDstEPKc(ptr noundef nonnull align 8 dereferenceable(16) %10, ptr noundef %4)
          to label %11 unwind label %69

11:                                               ; preds = %9
  call void @llvm.lifetime.start.p0(i64 16, ptr nonnull %7) #34
  %12 = load ptr, ptr %6, align 8, !tbaa !681
  store ptr %12, ptr %7, align 8, !tbaa !383
  %13 = getelementptr inbounds nuw i8, ptr %7, i64 8
  %14 = getelementptr inbounds nuw i8, ptr %6, i64 8
  %15 = load ptr, ptr %14, align 8, !tbaa !11
  store ptr %15, ptr %13, align 8, !tbaa !11
  %.not.i.i.i = icmp eq ptr %15, null
  br i1 %.not.i.i.i, label %_ZNSt10shared_ptrIKN19OpenColorIO_v2_5dev9TransformEEC2INS0_19ColorSpaceTransformEvEERKS_IT_E.exit, label %16

16:                                               ; preds = %11
  %17 = getelementptr inbounds nuw i8, ptr %15, i64 8
  %18 = load i8, ptr @__libc_single_threaded, align 1, !tbaa !19
  %.not.i.i.i.i = icmp eq i8 %18, 0
  br i1 %.not.i.i.i.i, label %22, label %19

19:                                               ; preds = %16
  %20 = load i32, ptr %17, align 4, !tbaa !20
  %21 = add nsw i32 %20, 1
  store i32 %21, ptr %17, align 4, !tbaa !20
  br label %_ZNSt10shared_ptrIKN19OpenColorIO_v2_5dev9TransformEEC2INS0_19ColorSpaceTransformEvEERKS_IT_E.exit

22:                                               ; preds = %16
  %23 = atomicrmw volatile add ptr %17, i32 1 acq_rel, align 4
  br label %_ZNSt10shared_ptrIKN19OpenColorIO_v2_5dev9TransformEEC2INS0_19ColorSpaceTransformEvEERKS_IT_E.exit

_ZNSt10shared_ptrIKN19OpenColorIO_v2_5dev9TransformEEC2INS0_19ColorSpaceTransformEvEERKS_IT_E.exit: ; preds = %11, %19, %22
  invoke void @_ZNK19OpenColorIO_v2_5dev6Config12getProcessorERKSt10shared_ptrIKNS_7ContextEERKS1_IKNS_9TransformEENS_18TransformDirectionE(ptr dead_on_unwind writable sret(%"class.std::shared_ptr.147") align 8 %0, ptr noundef nonnull align 8 dereferenceable(8) %1, ptr noundef nonnull align 8 dereferenceable(16) %2, ptr noundef nonnull align 8 dereferenceable(16) %7, i32 noundef 0)
          to label %24 unwind label %71

24:                                               ; preds = %_ZNSt10shared_ptrIKN19OpenColorIO_v2_5dev9TransformEEC2INS0_19ColorSpaceTransformEvEERKS_IT_E.exit
  %25 = load ptr, ptr %13, align 8, !tbaa !11
  %.not.i.i = icmp eq ptr %25, null
  br i1 %.not.i.i, label %_ZNSt12__shared_ptrIKN19OpenColorIO_v2_5dev9TransformELN9__gnu_cxx12_Lock_policyE2EED2Ev.exit, label %26

26:                                               ; preds = %24
  %27 = getelementptr inbounds nuw i8, ptr %25, i64 8
  %28 = load atomic i64, ptr %27 acquire, align 8
  %29 = icmp eq i64 %28, 4294967297
  %30 = trunc i64 %28 to i32
  br i1 %29, label %31, label %39

31:                                               ; preds = %26
  store i32 0, ptr %27, align 8, !tbaa !13
  %32 = getelementptr inbounds nuw i8, ptr %25, i64 12
  store i32 0, ptr %32, align 4, !tbaa !16
  %33 = load ptr, ptr %25, align 8, !tbaa !17
  %34 = getelementptr inbounds nuw i8, ptr %33, i64 16
  %35 = load ptr, ptr %34, align 8
  call void %35(ptr noundef nonnull align 8 dereferenceable(16) %25) #34
  %36 = load ptr, ptr %25, align 8, !tbaa !17
  %37 = getelementptr inbounds nuw i8, ptr %36, i64 24
  %38 = load ptr, ptr %37, align 8
  call void %38(ptr noundef nonnull align 8 dereferenceable(16) %25) #34
  br label %_ZNSt12__shared_ptrIKN19OpenColorIO_v2_5dev9TransformELN9__gnu_cxx12_Lock_policyE2EED2Ev.exit

39:                                               ; preds = %26
  %40 = load i8, ptr @__libc_single_threaded, align 1, !tbaa !19
  %.not.i.i.i7 = icmp eq i8 %40, 0
  br i1 %.not.i.i.i7, label %43, label %41

41:                                               ; preds = %39
  %42 = add nsw i32 %30, -1
  store i32 %42, ptr %27, align 4, !tbaa !20
  br label %_ZN9__gnu_cxx27__exchange_and_add_dispatchEPii.exit.i.i.i

43:                                               ; preds = %39
  %44 = atomicrmw volatile add ptr %27, i32 -1 acq_rel, align 4
  br label %_ZN9__gnu_cxx27__exchange_and_add_dispatchEPii.exit.i.i.i

_ZN9__gnu_cxx27__exchange_and_add_dispatchEPii.exit.i.i.i: ; preds = %43, %41
  %.0.i.i.i.i = phi i32 [ %30, %41 ], [ %44, %43 ]
  %45 = icmp eq i32 %.0.i.i.i.i, 1
  br i1 %45, label %46, label %_ZNSt12__shared_ptrIKN19OpenColorIO_v2_5dev9TransformELN9__gnu_cxx12_Lock_policyE2EED2Ev.exit, !prof !21

46:                                               ; preds = %_ZN9__gnu_cxx27__exchange_and_add_dispatchEPii.exit.i.i.i
  call void @_ZNSt16_Sp_counted_baseILN9__gnu_cxx12_Lock_policyE2EE24_M_release_last_use_coldEv(ptr noundef nonnull align 8 dereferenceable(16) %25) #34
  br label %_ZNSt12__shared_ptrIKN19OpenColorIO_v2_5dev9TransformELN9__gnu_cxx12_Lock_policyE2EED2Ev.exit

_ZNSt12__shared_ptrIKN19OpenColorIO_v2_5dev9TransformELN9__gnu_cxx12_Lock_policyE2EED2Ev.exit: ; preds = %24, %31, %_ZN9__gnu_cxx27__exchange_and_add_dispatchEPii.exit.i.i.i, %46
  call void @llvm.lifetime.end.p0(i64 16, ptr nonnull %7) #34
  %47 = load ptr, ptr %14, align 8, !tbaa !11
  %.not.i.i8 = icmp eq ptr %47, null
  br i1 %.not.i.i8, label %_ZNSt12__shared_ptrIN19OpenColorIO_v2_5dev19ColorSpaceTransformELN9__gnu_cxx12_Lock_policyE2EED2Ev.exit, label %48

48:                                               ; preds = %_ZNSt12__shared_ptrIKN19OpenColorIO_v2_5dev9TransformELN9__gnu_cxx12_Lock_policyE2EED2Ev.exit
  %49 = getelementptr inbounds nuw i8, ptr %47, i64 8
  %50 = load atomic i64, ptr %49 acquire, align 8
  %51 = icmp eq i64 %50, 4294967297
  %52 = trunc i64 %50 to i32
  br i1 %51, label %53, label %61

53:                                               ; preds = %48
  store i32 0, ptr %49, align 8, !tbaa !13
  %54 = getelementptr inbounds nuw i8, ptr %47, i64 12
  store i32 0, ptr %54, align 4, !tbaa !16
  %55 = load ptr, ptr %47, align 8, !tbaa !17
  %56 = getelementptr inbounds nuw i8, ptr %55, i64 16
  %57 = load ptr, ptr %56, align 8
  call void %57(ptr noundef nonnull align 8 dereferenceable(16) %47) #34
  %58 = load ptr, ptr %47, align 8, !tbaa !17
  %59 = getelementptr inbounds nuw i8, ptr %58, i64 24
  %60 = load ptr, ptr %59, align 8
  call void %60(ptr noundef nonnull align 8 dereferenceable(16) %47) #34
  br label %_ZNSt12__shared_ptrIN19OpenColorIO_v2_5dev19ColorSpaceTransformELN9__gnu_cxx12_Lock_policyE2EED2Ev.exit

61:                                               ; preds = %48
  %62 = load i8, ptr @__libc_single_threaded, align 1, !tbaa !19
  %.not.i.i.i9 = icmp eq i8 %62, 0
  br i1 %.not.i.i.i9, label %65, label %63

63:                                               ; preds = %61
  %64 = add nsw i32 %52, -1
  store i32 %64, ptr %49, align 4, !tbaa !20
  br label %_ZN9__gnu_cxx27__exchange_and_add_dispatchEPii.exit.i.i.i10

65:                                               ; preds = %61
  %66 = atomicrmw volatile add ptr %49, i32 -1 acq_rel, align 4
  br label %_ZN9__gnu_cxx27__exchange_and_add_dispatchEPii.exit.i.i.i10

_ZN9__gnu_cxx27__exchange_and_add_dispatchEPii.exit.i.i.i10: ; preds = %65, %63
  %.0.i.i.i.i11 = phi i32 [ %52, %63 ], [ %66, %65 ]
  %67 = icmp eq i32 %.0.i.i.i.i11, 1
  br i1 %67, label %68, label %_ZNSt12__shared_ptrIN19OpenColorIO_v2_5dev19ColorSpaceTransformELN9__gnu_cxx12_Lock_policyE2EED2Ev.exit, !prof !21

68:                                               ; preds = %_ZN9__gnu_cxx27__exchange_and_add_dispatchEPii.exit.i.i.i10
  call void @_ZNSt16_Sp_counted_baseILN9__gnu_cxx12_Lock_policyE2EE24_M_release_last_use_coldEv(ptr noundef nonnull align 8 dereferenceable(16) %47) #34
  br label %_ZNSt12__shared_ptrIN19OpenColorIO_v2_5dev19ColorSpaceTransformELN9__gnu_cxx12_Lock_policyE2EED2Ev.exit

_ZNSt12__shared_ptrIN19OpenColorIO_v2_5dev19ColorSpaceTransformELN9__gnu_cxx12_Lock_policyE2EED2Ev.exit: ; preds = %_ZNSt12__shared_ptrIKN19OpenColorIO_v2_5dev9TransformELN9__gnu_cxx12_Lock_policyE2EED2Ev.exit, %53, %_ZN9__gnu_cxx27__exchange_and_add_dispatchEPii.exit.i.i.i10, %68
  call void @llvm.lifetime.end.p0(i64 16, ptr nonnull %6) #34
  ret void

69:                                               ; preds = %9, %5
  %70 = landingpad { ptr, i32 }
          cleanup
  br label %73

71:                                               ; preds = %_ZNSt10shared_ptrIKN19OpenColorIO_v2_5dev9TransformEEC2INS0_19ColorSpaceTransformEvEERKS_IT_E.exit
  %72 = landingpad { ptr, i32 }
          cleanup
  call void @_ZNSt12__shared_ptrIKN19OpenColorIO_v2_5dev9TransformELN9__gnu_cxx12_Lock_policyE2EED2Ev(ptr noundef nonnull align 8 dereferenceable(16) %7) #34
  call void @llvm.lifetime.end.p0(i64 16, ptr nonnull %7) #34
  br label %73

73:                                               ; preds = %71, %69
  %.pn = phi { ptr, i32 } [ %72, %71 ], [ %70, %69 ]
  call void @_ZNSt12__shared_ptrIN19OpenColorIO_v2_5dev19ColorSpaceTransformELN9__gnu_cxx12_Lock_policyE2EED2Ev(ptr noundef nonnull align 8 dereferenceable(16) %6) #34
  call void @llvm.lifetime.end.p0(i64 16, ptr nonnull %6) #34
  resume { ptr, i32 } %.pn
}